target datalayout = "e-m:e-p270:32:32-p271:32:32-p272:64:64-i64:64-i128:128-f80:128-n8:16:32:64-S128"
target triple = "x86_64-pc-linux-gnu"

%struct.Inter_Check_t_ = type { i32, i32, ptr, ptr, ptr, ptr, ptr, ptr }
%struct.Vec_Int_t_ = type { i32, i32, ptr }

; Function Attrs: inlinehint nounwind uwtable
define internal void @Vec_IntFree(ptr noundef %0) #3 {
  %2 = alloca ptr, align 8
  store ptr %0, ptr %2, align 8, !tbaa !59
  %3 = load ptr, ptr %2, align 8, !tbaa !59
  %4 = getelementptr inbounds nuw %struct.Vec_Int_t_, ptr %3, i32 0, i32 2
  %5 = load ptr, ptr %4, align 8, !tbaa !63
  %6 = icmp ne ptr %5, null
  br i1 %6, label %7, label %13

7:                                                ; preds = %1
  %8 = load ptr, ptr %2, align 8, !tbaa !59
  %9 = getelementptr inbounds nuw %struct.Vec_Int_t_, ptr %8, i32 0, i32 2
  %10 = load ptr, ptr %9, align 8, !tbaa !63
  call void @free(ptr noundef %10) #8
  %11 = load ptr, ptr %2, align 8, !tbaa !59
  %12 = getelementptr inbounds nuw %struct.Vec_Int_t_, ptr %11, i32 0, i32 2
  store ptr null, ptr %12, align 8, !tbaa !63
  br label %14

13:                                               ; preds = %1
  br label %14

14:                                               ; preds = %13, %7
  %15 = load ptr, ptr %2, align 8, !tbaa !59
  %16 = icmp ne ptr %15, null
  br i1 %16, label %17, label %19

17:                                               ; preds = %14
  %18 = load ptr, ptr %2, align 8, !tbaa !59
  call void @free(ptr noundef %18) #8
  store ptr null, ptr %2, align 8, !tbaa !59
  br label %20

19:                                               ; preds = %14
  br label %20

20:                                               ; preds = %19, %17
  ret void
}

; Function Attrs: nounwind uwtable
define void @Inter_CheckStop(ptr noundef %0) #0 {
  %2 = alloca ptr, align 8
  store ptr %0, ptr %2, align 8, !tbaa !43
  %3 = load ptr, ptr %2, align 8, !tbaa !43
  %4 = icmp eq ptr %3, null
  br i1 %4, label %5, label %6

5:                                                ; preds = %1
  br label %31

6:                                                ; preds = %1
  %7 = load ptr, ptr %2, align 8, !tbaa !43
  %8 = getelementptr inbounds nuw %struct.Inter_Check_t_, ptr %7, i32 0, i32 5
  %9 = load ptr, ptr %8, align 8, !tbaa !45
  call void @Vec_IntFree(ptr noundef %9)
  %10 = load ptr, ptr %2, align 8, !tbaa !43
  %11 = getelementptr inbounds nuw %struct.Inter_Check_t_, ptr %10, i32 0, i32 6
  %12 = load ptr, ptr %11, align 8, !tbaa !49
  call void @Vec_IntFree(ptr noundef %12)
  %13 = load ptr, ptr %2, align 8, !tbaa !43
  %14 = getelementptr inbounds nuw %struct.Inter_Check_t_, ptr %13, i32 0, i32 7
  %15 = load ptr, ptr %14, align 8, !tbaa !50
  call void @Vec_IntFree(ptr noundef %15)
  %16 = load ptr, ptr %2, align 8, !tbaa !43
  %17 = getelementptr inbounds nuw %struct.Inter_Check_t_, ptr %16, i32 0, i32 3
  %18 = load ptr, ptr %17, align 8, !tbaa !52
  call void @Cnf_DataFree(ptr noundef %18)
  %19 = load ptr, ptr %2, align 8, !tbaa !43
  %20 = getelementptr inbounds nuw %struct.Inter_Check_t_, ptr %19, i32 0, i32 2
  %21 = load ptr, ptr %20, align 8, !tbaa !51
  call void @Aig_ManStop(ptr noundef %21)
  %22 = load ptr, ptr %2, align 8, !tbaa !43
  %23 = getelementptr inbounds nuw %struct.Inter_Check_t_, ptr %22, i32 0, i32 4
  %24 = load ptr, ptr %23, align 8, !tbaa !53
  call void @sat_solver_delete(ptr noundef %24)
  %25 = load ptr, ptr %2, align 8, !tbaa !43
  %26 = icmp ne ptr %25, null
  br i1 %26, label %27, label %29

27:                                               ; preds = %6
  %28 = load ptr, ptr %2, align 8, !tbaa !43
  call void @free(ptr noundef %28) #8
  store ptr null, ptr %2, align 8, !tbaa !43
  br label %30

29:                                               ; preds = %6
  br label %30

30:                                               ; preds = %29, %27
  br label %31

31:                                               ; preds = %30, %5
  ret void
}