; Function Attrs: nounwind uwtable
define void @Inter_CheckStop(ptr noundef %0) local_unnamed_addr #0 {
  %2 = icmp eq ptr %0, null
  br i1 %2, label %25, label %3

3:                                                ; preds = %1
  %4 = getelementptr inbounds nuw i8, ptr %0, i64 32
  %5 = load ptr, ptr %4, align 8, !tbaa !46
  %6 = getelementptr inbounds nuw i8, ptr %5, i64 8
  %7 = load ptr, ptr %6, align 8, !tbaa !45
  %.not.i = icmp eq ptr %7, null
  br i1 %.not.i, label %Vec_IntFree.exit, label %8

8:                                                ; preds = %3
  tail call void @free(ptr noundef nonnull %7) #7
  br label %Vec_IntFree.exit

Vec_IntFree.exit:                                 ; preds = %3, %8
  tail call void @free(ptr noundef nonnull %5) #7
  %9 = getelementptr inbounds nuw i8, ptr %0, i64 40
  %10 = load ptr, ptr %9, align 8, !tbaa !50
  %11 = getelementptr inbounds nuw i8, ptr %10, i64 8
  %12 = load ptr, ptr %11, align 8, !tbaa !45
  %.not.i9 = icmp eq ptr %12, null
  br i1 %.not.i9, label %Vec_IntFree.exit10, label %13

13:                                               ; preds = %Vec_IntFree.exit
  tail call void @free(ptr noundef nonnull %12) #7
  br label %Vec_IntFree.exit10

Vec_IntFree.exit10:                               ; preds = %Vec_IntFree.exit, %13
  tail call void @free(ptr noundef nonnull %10) #7
  %14 = getelementptr inbounds nuw i8, ptr %0, i64 48
  %15 = load ptr, ptr %14, align 8, !tbaa !51
  %16 = getelementptr inbounds nuw i8, ptr %15, i64 8
  %17 = load ptr, ptr %16, align 8, !tbaa !45
  %.not.i11 = icmp eq ptr %17, null
  br i1 %.not.i11, label %Vec_IntFree.exit12, label %18

18:                                               ; preds = %Vec_IntFree.exit10
  tail call void @free(ptr noundef nonnull %17) #7
  br label %Vec_IntFree.exit12

Vec_IntFree.exit12:                               ; preds = %Vec_IntFree.exit10, %18
  tail call void @free(ptr noundef nonnull %15) #7
  %19 = getelementptr inbounds nuw i8, ptr %0, i64 16
  %20 = load ptr, ptr %19, align 8, !tbaa !53
  tail call void @Cnf_DataFree(ptr noundef %20) #7
  %21 = getelementptr inbounds nuw i8, ptr %0, i64 8
  %22 = load ptr, ptr %21, align 8, !tbaa !52
  tail call void @Aig_ManStop(ptr noundef %22) #7
  %23 = getelementptr inbounds nuw i8, ptr %0, i64 24
  %24 = load ptr, ptr %23, align 8, !tbaa !54
  tail call void @sat_solver_delete(ptr noundef %24) #7
  tail call void @free(ptr noundef nonnull %0) #7
  br label %25

25:                                               ; preds = %Vec_IntFree.exit12, %1
  ret void
}